; ModuleID = 'source-C-CXX/47/1250.c'
source_filename = "source-C-CXX/47/1250.c"
target datalayout = "e-m:e-p270:32:32-p271:32:32-p272:64:64-i64:64-f80:128-n8:16:32:64-S128"
target triple = "x86_64-pc-linux-gnu"

@map = dso_local local_unnamed_addr global [11 x [11 x [4 x i32]]] zeroinitializer, align 16
@.str = private unnamed_addr constant [6 x i8] c"%d %d\00", align 1
@k = dso_local local_unnamed_addr global i32 0, align 4
@i = dso_local local_unnamed_addr global i32 0, align 4
@j = dso_local local_unnamed_addr global i32 0, align 4
@.str.1 = private unnamed_addr constant [4 x i8] c"%d \00", align 1
@.str.2 = private unnamed_addr constant [4 x i8] c"%d\0A\00", align 1

; Function Attrs: nofree nounwind sspstrong uwtable
define dso_local i32 @main() local_unnamed_addr #0 {
  %1 = alloca i32, align 4
  %2 = alloca i32, align 4
  %3 = bitcast i32* %1 to i8*
  call void @llvm.lifetime.start.p0i8(i64 4, i8* nonnull %3) #4
  %4 = bitcast i32* %2 to i8*
  call void @llvm.lifetime.start.p0i8(i64 4, i8* nonnull %4) #4
  tail call void @llvm.memset.p0i8.i64(i8* noundef nonnull align 16 dereferenceable(1936) bitcast ([11 x [11 x [4 x i32]]]* @map to i8*), i8 0, i64 1936, i1 false)
  %5 = call i32 (i8*, ...) @__isoc99_scanf(i8* getelementptr inbounds ([6 x i8], [6 x i8]* @.str, i64 0, i64 0), i32* nonnull %1, i32* nonnull %2)
  %6 = load i32, i32* %1, align 4, !tbaa !5
  store i32 %6, i32* getelementptr inbounds ([11 x [11 x [4 x i32]]], [11 x [11 x [4 x i32]]]* @map, i64 0, i64 5, i64 5, i64 0), align 16, !tbaa !5
  %7 = load i32, i32* %2, align 4, !tbaa !5
  %8 = icmp slt i32 %7, 1
  br i1 %8, label %23, label %9

9:                                                ; preds = %0
  %10 = add nuw i32 %7, 1
  %11 = zext i32 %10 to i64
  br label %12

12:                                               ; preds = %9, %188
  %13 = phi i64 [ 1, %9 ], [ %189, %188 ]
  %14 = add nsw i64 %13, -1
  %15 = getelementptr inbounds [11 x [11 x [4 x i32]]], [11 x [11 x [4 x i32]]]* @map, i64 0, i64 1, i64 5, i64 %14
  %16 = load i32, i32* %15, align 4, !tbaa !5
  %17 = getelementptr inbounds [11 x [11 x [4 x i32]]], [11 x [11 x [4 x i32]]]* @map, i64 0, i64 0, i64 6, i64 %14
  %18 = load i32, i32* %17, align 4, !tbaa !5
  %19 = getelementptr inbounds [11 x [11 x [4 x i32]]], [11 x [11 x [4 x i32]]]* @map, i64 0, i64 1, i64 6, i64 %14
  %20 = load i32, i32* %19, align 4, !tbaa !5
  %21 = getelementptr inbounds [11 x [11 x [4 x i32]]], [11 x [11 x [4 x i32]]]* @map, i64 0, i64 0, i64 5, i64 %14
  %22 = load i32, i32* %21, align 4, !tbaa !5
  br label %25

23:                                               ; preds = %188, %0
  %24 = phi i32 [ 1, %0 ], [ %10, %188 ]
  store i32 %24, i32* @k, align 4, !tbaa !5
  store i32 1, i32* @i, align 4, !tbaa !5
  br label %191

25:                                               ; preds = %12, %25
  %26 = phi i32 [ %22, %12 ], [ %128, %25 ]
  %27 = phi i32 [ %20, %12 ], [ %117, %25 ]
  %28 = phi i32 [ %18, %12 ], [ %120, %25 ]
  %29 = phi i32 [ %16, %12 ], [ %103, %25 ]
  %30 = phi i64 [ 1, %12 ], [ %32, %25 ]
  %31 = add nsw i64 %30, -1
  %32 = add nuw nsw i64 %30, 1
  %33 = getelementptr inbounds [11 x [11 x [4 x i32]]], [11 x [11 x [4 x i32]]]* @map, i64 0, i64 %30, i64 1, i64 %14
  %34 = load i32, i32* %33, align 4, !tbaa !5
  %35 = shl nsw i32 %34, 1
  %36 = getelementptr inbounds [11 x [11 x [4 x i32]]], [11 x [11 x [4 x i32]]]* @map, i64 0, i64 %31, i64 0, i64 %14
  %37 = load i32, i32* %36, align 4, !tbaa !5
  %38 = add nsw i32 %35, %37
  %39 = getelementptr inbounds [11 x [11 x [4 x i32]]], [11 x [11 x [4 x i32]]]* @map, i64 0, i64 %31, i64 1, i64 %14
  %40 = load i32, i32* %39, align 4, !tbaa !5
  %41 = add nsw i32 %38, %40
  %42 = getelementptr inbounds [11 x [11 x [4 x i32]]], [11 x [11 x [4 x i32]]]* @map, i64 0, i64 %31, i64 2, i64 %14
  %43 = load i32, i32* %42, align 4, !tbaa !5
  %44 = add nsw i32 %41, %43
  %45 = getelementptr inbounds [11 x [11 x [4 x i32]]], [11 x [11 x [4 x i32]]]* @map, i64 0, i64 %30, i64 0, i64 %14
  %46 = load i32, i32* %45, align 4, !tbaa !5
  %47 = add nsw i32 %44, %46
  %48 = getelementptr inbounds [11 x [11 x [4 x i32]]], [11 x [11 x [4 x i32]]]* @map, i64 0, i64 %30, i64 2, i64 %14
  %49 = load i32, i32* %48, align 4, !tbaa !5
  %50 = add nsw i32 %47, %49
  %51 = getelementptr inbounds [11 x [11 x [4 x i32]]], [11 x [11 x [4 x i32]]]* @map, i64 0, i64 %32, i64 0, i64 %14
  %52 = load i32, i32* %51, align 4, !tbaa !5
  %53 = add nsw i32 %50, %52
  %54 = getelementptr inbounds [11 x [11 x [4 x i32]]], [11 x [11 x [4 x i32]]]* @map, i64 0, i64 %32, i64 1, i64 %14
  %55 = load i32, i32* %54, align 4, !tbaa !5
  %56 = add nsw i32 %53, %55
  %57 = getelementptr inbounds [11 x [11 x [4 x i32]]], [11 x [11 x [4 x i32]]]* @map, i64 0, i64 %32, i64 2, i64 %14
  %58 = load i32, i32* %57, align 4, !tbaa !5
  %59 = add nsw i32 %56, %58
  %60 = getelementptr inbounds [11 x [11 x [4 x i32]]], [11 x [11 x [4 x i32]]]* @map, i64 0, i64 %30, i64 1, i64 %13
  store i32 %59, i32* %60, align 4, !tbaa !5
  %61 = shl nsw i32 %49, 1
  %62 = add nsw i32 %61, %40
  %63 = add nsw i32 %62, %43
  %64 = getelementptr inbounds [11 x [11 x [4 x i32]]], [11 x [11 x [4 x i32]]]* @map, i64 0, i64 %31, i64 3, i64 %14
  %65 = load i32, i32* %64, align 4, !tbaa !5
  %66 = add nsw i32 %63, %65
  %67 = add nsw i32 %66, %34
  %68 = getelementptr inbounds [11 x [11 x [4 x i32]]], [11 x [11 x [4 x i32]]]* @map, i64 0, i64 %30, i64 3, i64 %14
  %69 = load i32, i32* %68, align 4, !tbaa !5
  %70 = add nsw i32 %67, %69
  %71 = add nsw i32 %70, %55
  %72 = add nsw i32 %71, %58
  %73 = getelementptr inbounds [11 x [11 x [4 x i32]]], [11 x [11 x [4 x i32]]]* @map, i64 0, i64 %32, i64 3, i64 %14
  %74 = load i32, i32* %73, align 4, !tbaa !5
  %75 = add nsw i32 %72, %74
  %76 = getelementptr inbounds [11 x [11 x [4 x i32]]], [11 x [11 x [4 x i32]]]* @map, i64 0, i64 %30, i64 2, i64 %13
  store i32 %75, i32* %76, align 4, !tbaa !5
  %77 = shl nsw i32 %69, 1
  %78 = add nsw i32 %77, %43
  %79 = add nsw i32 %78, %65
  %80 = getelementptr inbounds [11 x [11 x [4 x i32]]], [11 x [11 x [4 x i32]]]* @map, i64 0, i64 %31, i64 4, i64 %14
  %81 = load i32, i32* %80, align 4, !tbaa !5
  %82 = add nsw i32 %79, %81
  %83 = add nsw i32 %82, %49
  %84 = getelementptr inbounds [11 x [11 x [4 x i32]]], [11 x [11 x [4 x i32]]]* @map, i64 0, i64 %30, i64 4, i64 %14
  %85 = load i32, i32* %84, align 4, !tbaa !5
  %86 = add nsw i32 %83, %85
  %87 = add nsw i32 %86, %58
  %88 = add nsw i32 %87, %74
  %89 = getelementptr inbounds [11 x [11 x [4 x i32]]], [11 x [11 x [4 x i32]]]* @map, i64 0, i64 %32, i64 4, i64 %14
  %90 = load i32, i32* %89, align 4, !tbaa !5
  %91 = add nsw i32 %88, %90
  %92 = getelementptr inbounds [11 x [11 x [4 x i32]]], [11 x [11 x [4 x i32]]]* @map, i64 0, i64 %30, i64 3, i64 %13
  store i32 %91, i32* %92, align 4, !tbaa !5
  %93 = shl nsw i32 %85, 1
  %94 = add nsw i32 %93, %65
  %95 = add nsw i32 %94, %81
  %96 = add nsw i32 %95, %26
  %97 = add nsw i32 %96, %69
  %98 = getelementptr inbounds [11 x [11 x [4 x i32]]], [11 x [11 x [4 x i32]]]* @map, i64 0, i64 %30, i64 5, i64 %14
  %99 = add nsw i32 %97, %29
  %100 = add nsw i32 %99, %74
  %101 = add nsw i32 %100, %90
  %102 = getelementptr inbounds [11 x [11 x [4 x i32]]], [11 x [11 x [4 x i32]]]* @map, i64 0, i64 %32, i64 5, i64 %14
  %103 = load i32, i32* %102, align 4, !tbaa !5
  %104 = add nsw i32 %101, %103
  %105 = getelementptr inbounds [11 x [11 x [4 x i32]]], [11 x [11 x [4 x i32]]]* @map, i64 0, i64 %30, i64 4, i64 %13
  store i32 %104, i32* %105, align 4, !tbaa !5
  %106 = shl nsw i32 %29, 1
  %107 = add nsw i32 %106, %81
  %108 = add nsw i32 %107, %26
  %109 = getelementptr inbounds [11 x [11 x [4 x i32]]], [11 x [11 x [4 x i32]]]* @map, i64 0, i64 %31, i64 6, i64 %14
  %110 = add nsw i32 %108, %28
  %111 = add nsw i32 %110, %85
  %112 = getelementptr inbounds [11 x [11 x [4 x i32]]], [11 x [11 x [4 x i32]]]* @map, i64 0, i64 %30, i64 6, i64 %14
  %113 = add nsw i32 %111, %27
  %114 = add nsw i32 %113, %90
  %115 = add nsw i32 %114, %103
  %116 = getelementptr inbounds [11 x [11 x [4 x i32]]], [11 x [11 x [4 x i32]]]* @map, i64 0, i64 %32, i64 6, i64 %14
  %117 = load i32, i32* %116, align 4, !tbaa !5
  %118 = add nsw i32 %115, %117
  %119 = getelementptr inbounds [11 x [11 x [4 x i32]]], [11 x [11 x [4 x i32]]]* @map, i64 0, i64 %30, i64 5, i64 %13
  store i32 %118, i32* %119, align 4, !tbaa !5
  %120 = load i32, i32* %112, align 4, !tbaa !5
  %121 = shl nsw i32 %120, 1
  %122 = add nsw i32 %121, %26
  %123 = load i32, i32* %109, align 4, !tbaa !5
  %124 = add nsw i32 %122, %123
  %125 = getelementptr inbounds [11 x [11 x [4 x i32]]], [11 x [11 x [4 x i32]]]* @map, i64 0, i64 %31, i64 7, i64 %14
  %126 = load i32, i32* %125, align 4, !tbaa !5
  %127 = add nsw i32 %124, %126
  %128 = load i32, i32* %98, align 4, !tbaa !5
  %129 = add nsw i32 %127, %128
  %130 = getelementptr inbounds [11 x [11 x [4 x i32]]], [11 x [11 x [4 x i32]]]* @map, i64 0, i64 %30, i64 7, i64 %14
  %131 = load i32, i32* %130, align 4, !tbaa !5
  %132 = add nsw i32 %129, %131
  %133 = add nsw i32 %132, %103
  %134 = add nsw i32 %133, %117
  %135 = getelementptr inbounds [11 x [11 x [4 x i32]]], [11 x [11 x [4 x i32]]]* @map, i64 0, i64 %32, i64 7, i64 %14
  %136 = load i32, i32* %135, align 4, !tbaa !5
  %137 = add nsw i32 %134, %136
  %138 = getelementptr inbounds [11 x [11 x [4 x i32]]], [11 x [11 x [4 x i32]]]* @map, i64 0, i64 %30, i64 6, i64 %13
  store i32 %137, i32* %138, align 4, !tbaa !5
  %139 = shl nsw i32 %131, 1
  %140 = add nsw i32 %139, %123
  %141 = add nsw i32 %140, %126
  %142 = getelementptr inbounds [11 x [11 x [4 x i32]]], [11 x [11 x [4 x i32]]]* @map, i64 0, i64 %31, i64 8, i64 %14
  %143 = load i32, i32* %142, align 4, !tbaa !5
  %144 = add nsw i32 %141, %143
  %145 = add nsw i32 %144, %120
  %146 = getelementptr inbounds [11 x [11 x [4 x i32]]], [11 x [11 x [4 x i32]]]* @map, i64 0, i64 %30, i64 8, i64 %14
  %147 = load i32, i32* %146, align 4, !tbaa !5
  %148 = add nsw i32 %145, %147
  %149 = add nsw i32 %148, %117
  %150 = add nsw i32 %149, %136
  %151 = getelementptr inbounds [11 x [11 x [4 x i32]]], [11 x [11 x [4 x i32]]]* @map, i64 0, i64 %32, i64 8, i64 %14
  %152 = load i32, i32* %151, align 4, !tbaa !5
  %153 = add nsw i32 %150, %152
  %154 = getelementptr inbounds [11 x [11 x [4 x i32]]], [11 x [11 x [4 x i32]]]* @map, i64 0, i64 %30, i64 7, i64 %13
  store i32 %153, i32* %154, align 4, !tbaa !5
  %155 = shl nsw i32 %147, 1
  %156 = add nsw i32 %155, %126
  %157 = add nsw i32 %156, %143
  %158 = getelementptr inbounds [11 x [11 x [4 x i32]]], [11 x [11 x [4 x i32]]]* @map, i64 0, i64 %31, i64 9, i64 %14
  %159 = load i32, i32* %158, align 4, !tbaa !5
  %160 = add nsw i32 %157, %159
  %161 = add nsw i32 %160, %131
  %162 = getelementptr inbounds [11 x [11 x [4 x i32]]], [11 x [11 x [4 x i32]]]* @map, i64 0, i64 %30, i64 9, i64 %14
  %163 = load i32, i32* %162, align 4, !tbaa !5
  %164 = add nsw i32 %161, %163
  %165 = add nsw i32 %164, %136
  %166 = add nsw i32 %165, %152
  %167 = getelementptr inbounds [11 x [11 x [4 x i32]]], [11 x [11 x [4 x i32]]]* @map, i64 0, i64 %32, i64 9, i64 %14
  %168 = load i32, i32* %167, align 4, !tbaa !5
  %169 = add nsw i32 %166, %168
  %170 = getelementptr inbounds [11 x [11 x [4 x i32]]], [11 x [11 x [4 x i32]]]* @map, i64 0, i64 %30, i64 8, i64 %13
  store i32 %169, i32* %170, align 4, !tbaa !5
  %171 = shl nsw i32 %163, 1
  %172 = add nsw i32 %171, %143
  %173 = add nsw i32 %172, %159
  %174 = getelementptr inbounds [11 x [11 x [4 x i32]]], [11 x [11 x [4 x i32]]]* @map, i64 0, i64 %31, i64 10, i64 %14
  %175 = load i32, i32* %174, align 4, !tbaa !5
  %176 = add nsw i32 %173, %175
  %177 = add nsw i32 %176, %147
  %178 = getelementptr inbounds [11 x [11 x [4 x i32]]], [11 x [11 x [4 x i32]]]* @map, i64 0, i64 %30, i64 10, i64 %14
  %179 = load i32, i32* %178, align 4, !tbaa !5
  %180 = add nsw i32 %177, %179
  %181 = add nsw i32 %180, %152
  %182 = add nsw i32 %181, %168
  %183 = getelementptr inbounds [11 x [11 x [4 x i32]]], [11 x [11 x [4 x i32]]]* @map, i64 0, i64 %32, i64 10, i64 %14
  %184 = load i32, i32* %183, align 4, !tbaa !5
  %185 = add nsw i32 %182, %184
  %186 = getelementptr inbounds [11 x [11 x [4 x i32]]], [11 x [11 x [4 x i32]]]* @map, i64 0, i64 %30, i64 9, i64 %13
  store i32 %185, i32* %186, align 4, !tbaa !5
  %187 = icmp eq i64 %32, 10
  br i1 %187, label %188, label %25, !llvm.loop !9

188:                                              ; preds = %25
  %189 = add nuw nsw i64 %13, 1
  %190 = icmp eq i64 %189, %11
  br i1 %190, label %23, label %12, !llvm.loop !11

191:                                              ; preds = %23, %207
  store i32 1, i32* @j, align 4, !tbaa !5
  br label %192

192:                                              ; preds = %191, %192
  %193 = phi i32 [ 1, %191 ], [ %205, %192 ]
  %194 = icmp eq i32 %193, 9
  %195 = load i32, i32* @i, align 4, !tbaa !5
  %196 = sext i32 %195 to i64
  %197 = sext i32 %193 to i64
  %198 = load i32, i32* %2, align 4
  %199 = select i1 %194, i8* getelementptr inbounds ([4 x i8], [4 x i8]* @.str.2, i64 0, i64 0), i8* getelementptr inbounds ([4 x i8], [4 x i8]* @.str.1, i64 0, i64 0)
  %200 = sext i32 %198 to i64
  %201 = getelementptr inbounds [11 x [11 x [4 x i32]]], [11 x [11 x [4 x i32]]]* @map, i64 0, i64 %196, i64 %197, i64 %200
  %202 = load i32, i32* %201, align 4, !tbaa !5
  %203 = call i32 (i8*, ...) @printf(i8* nonnull dereferenceable(1) %199, i32 %202)
  %204 = load i32, i32* @j, align 4, !tbaa !5
  %205 = add nsw i32 %204, 1
  store i32 %205, i32* @j, align 4, !tbaa !5
  %206 = icmp slt i32 %204, 9
  br i1 %206, label %192, label %207, !llvm.loop !12

207:                                              ; preds = %192
  %208 = load i32, i32* @i, align 4, !tbaa !5
  %209 = add nsw i32 %208, 1
  store i32 %209, i32* @i, align 4, !tbaa !5
  %210 = icmp slt i32 %208, 9
  br i1 %210, label %191, label %211, !llvm.loop !13

211:                                              ; preds = %207
  call void @llvm.lifetime.end.p0i8(i64 4, i8* nonnull %4) #4
  call void @llvm.lifetime.end.p0i8(i64 4, i8* nonnull %3) #4
  ret i32 0
}

; Function Attrs: argmemonly mustprogress nofree nosync nounwind willreturn
declare void @llvm.lifetime.start.p0i8(i64 immarg, i8* nocapture) #1

; Function Attrs: argmemonly mustprogress nofree nounwind willreturn writeonly
declare void @llvm.memset.p0i8.i64(i8* nocapture writeonly, i8, i64, i1 immarg) #2

; Function Attrs: nofree nounwind
declare noundef i32 @__isoc99_scanf(i8* nocapture noundef readonly, ...) local_unnamed_addr #3

; Function Attrs: nofree nounwind
declare noundef i32 @printf(i8* nocapture noundef readonly, ...) local_unnamed_addr #3

; Function Attrs: argmemonly mustprogress nofree nosync nounwind willreturn
declare void @llvm.lifetime.end.p0i8(i64 immarg, i8* nocapture) #1


!llvm.module.flags = !{!0, !1, !2, !3}
!llvm.ident = !{!4}

!0 = !{i32 1, !"wchar_size", i32 4}
!1 = !{i32 7, !"PIC Level", i32 2}
!2 = !{i32 7, !"PIE Level", i32 2}
!3 = !{i32 7, !"uwtable", i32 1}
!4 = !{!"clang version 13.0.0"}
!5 = !{!6, !6, i64 0}
!6 = !{!"int", !7, i64 0}
!7 = !{!"omnipotent char", !8, i64 0}
!8 = !{!"Simple C/C++ TBAA"}
!9 = distinct !{!9, !10}
!10 = !{!"llvm.loop.mustprogress"}
!11 = distinct !{!11, !10}
!12 = distinct !{!12, !10}
!13 = distinct !{!13, !10}
